target datalayout = "e-m:e-p270:32:32-p271:32:32-p272:64:64-i64:64-i128:128-f80:128-n8:16:32:64-S128"
target triple = "x86_64-pc-linux-gnu"

%struct.mbedtls_sha1_context = type { [2 x i32], [5 x i32], [64 x i8] }

; Function Attrs: nounwind uwtable
define hidden i32 @mbedtls_sha1_update(ptr noundef %0, ptr noundef %1, i64 noundef %2) #0 {
  %4 = alloca i32, align 4
  %5 = alloca ptr, align 8
  %6 = alloca ptr, align 8
  %7 = alloca i64, align 8
  %8 = alloca i32, align 4
  %9 = alloca i64, align 8
  %10 = alloca i32, align 4
  %11 = alloca i32, align 4
  store ptr %0, ptr %5, align 8, !tbaa !3
  store ptr %1, ptr %6, align 8, !tbaa !12
  store i64 %2, ptr %7, align 8, !tbaa !22
  call void @llvm.lifetime.start.p0(i64 4, ptr %8) #8
  store i32 -110, ptr %8, align 4, !tbaa !10
  call void @llvm.lifetime.start.p0(i64 8, ptr %9) #8
  call void @llvm.lifetime.start.p0(i64 4, ptr %10) #8
  %12 = load i64, ptr %7, align 8, !tbaa !22
  %13 = icmp eq i64 %12, 0
  br i1 %13, label %14, label %15

14:                                               ; preds = %3
  store i32 0, ptr %4, align 4
  store i32 1, ptr %11, align 4
  br label %109

15:                                               ; preds = %3
  %16 = load ptr, ptr %5, align 8, !tbaa !3
  %17 = getelementptr inbounds nuw %struct.mbedtls_sha1_context, ptr %16, i32 0, i32 0
  %18 = getelementptr inbounds [2 x i32], ptr %17, i64 0, i64 0
  %19 = load i32, ptr %18, align 4, !tbaa !10
  %20 = and i32 %19, 63
  store i32 %20, ptr %10, align 4, !tbaa !10
  %21 = load i32, ptr %10, align 4, !tbaa !10
  %22 = sub i32 64, %21
  %23 = zext i32 %22 to i64
  store i64 %23, ptr %9, align 8, !tbaa !22
  %24 = load i64, ptr %7, align 8, !tbaa !22
  %25 = trunc i64 %24 to i32
  %26 = load ptr, ptr %5, align 8, !tbaa !3
  %27 = getelementptr inbounds nuw %struct.mbedtls_sha1_context, ptr %26, i32 0, i32 0
  %28 = getelementptr inbounds [2 x i32], ptr %27, i64 0, i64 0
  %29 = load i32, ptr %28, align 4, !tbaa !10
  %30 = add i32 %29, %25
  store i32 %30, ptr %28, align 4, !tbaa !10
  %31 = load ptr, ptr %5, align 8, !tbaa !3
  %32 = getelementptr inbounds nuw %struct.mbedtls_sha1_context, ptr %31, i32 0, i32 0
  %33 = getelementptr inbounds [2 x i32], ptr %32, i64 0, i64 0
  %34 = load i32, ptr %33, align 4, !tbaa !10
  %35 = and i32 %34, -1
  store i32 %35, ptr %33, align 4, !tbaa !10
  %36 = load ptr, ptr %5, align 8, !tbaa !3
  %37 = getelementptr inbounds nuw %struct.mbedtls_sha1_context, ptr %36, i32 0, i32 0
  %38 = getelementptr inbounds [2 x i32], ptr %37, i64 0, i64 0
  %39 = load i32, ptr %38, align 4, !tbaa !10
  %40 = load i64, ptr %7, align 8, !tbaa !22
  %41 = trunc i64 %40 to i32
  %42 = icmp ult i32 %39, %41
  br i1 %42, label %43, label %49

43:                                               ; preds = %15
  %44 = load ptr, ptr %5, align 8, !tbaa !3
  %45 = getelementptr inbounds nuw %struct.mbedtls_sha1_context, ptr %44, i32 0, i32 0
  %46 = getelementptr inbounds [2 x i32], ptr %45, i64 0, i64 1
  %47 = load i32, ptr %46, align 4, !tbaa !10
  %48 = add i32 %47, 1
  store i32 %48, ptr %46, align 4, !tbaa !10
  br label %49

49:                                               ; preds = %43, %15
  %50 = load i32, ptr %10, align 4, !tbaa !10
  %51 = icmp ne i32 %50, 0
  br i1 %51, label %52, label %80

52:                                               ; preds = %49
  %53 = load i64, ptr %7, align 8, !tbaa !22
  %54 = load i64, ptr %9, align 8, !tbaa !22
  %55 = icmp uge i64 %53, %54
  br i1 %55, label %56, label %80

56:                                               ; preds = %52
  %57 = load ptr, ptr %5, align 8, !tbaa !3
  %58 = getelementptr inbounds nuw %struct.mbedtls_sha1_context, ptr %57, i32 0, i32 2
  %59 = getelementptr inbounds [64 x i8], ptr %58, i64 0, i64 0
  %60 = load i32, ptr %10, align 4, !tbaa !10
  %61 = zext i32 %60 to i64
  %62 = getelementptr inbounds nuw i8, ptr %59, i64 %61
  %63 = load ptr, ptr %6, align 8, !tbaa !12
  %64 = load i64, ptr %9, align 8, !tbaa !22
  call void @llvm.memcpy.p0.p0.i64(ptr align 1 %62, ptr align 1 %63, i64 %64, i1 false)
  %65 = load ptr, ptr %5, align 8, !tbaa !3
  %66 = load ptr, ptr %5, align 8, !tbaa !3
  %67 = getelementptr inbounds nuw %struct.mbedtls_sha1_context, ptr %66, i32 0, i32 2
  %68 = getelementptr inbounds [64 x i8], ptr %67, i64 0, i64 0
  %69 = call i32 @mbedtls_internal_sha1_process(ptr noundef %65, ptr noundef %68)
  store i32 %69, ptr %8, align 4, !tbaa !10
  %70 = icmp ne i32 %69, 0
  br i1 %70, label %71, label %73

71:                                               ; preds = %56
  %72 = load i32, ptr %8, align 4, !tbaa !10
  store i32 %72, ptr %4, align 4
  store i32 1, ptr %11, align 4
  br label %109

73:                                               ; preds = %56
  %74 = load i64, ptr %9, align 8, !tbaa !22
  %75 = load ptr, ptr %6, align 8, !tbaa !12
  %76 = getelementptr inbounds nuw i8, ptr %75, i64 %74
  store ptr %76, ptr %6, align 8, !tbaa !12
  %77 = load i64, ptr %9, align 8, !tbaa !22
  %78 = load i64, ptr %7, align 8, !tbaa !22
  %79 = sub i64 %78, %77
  store i64 %79, ptr %7, align 8, !tbaa !22
  store i32 0, ptr %10, align 4, !tbaa !10
  br label %80

80:                                               ; preds = %73, %52, %49
  br label %81

81:                                               ; preds = %91, %80
  %82 = load i64, ptr %7, align 8, !tbaa !22
  %83 = icmp uge i64 %82, 64
  br i1 %83, label %84, label %96

84:                                               ; preds = %81
  %85 = load ptr, ptr %5, align 8, !tbaa !3
  %86 = load ptr, ptr %6, align 8, !tbaa !12
  %87 = call i32 @mbedtls_internal_sha1_process(ptr noundef %85, ptr noundef %86)
  store i32 %87, ptr %8, align 4, !tbaa !10
  %88 = icmp ne i32 %87, 0
  br i1 %88, label %89, label %91

89:                                               ; preds = %84
  %90 = load i32, ptr %8, align 4, !tbaa !10
  store i32 %90, ptr %4, align 4
  store i32 1, ptr %11, align 4
  br label %109

91:                                               ; preds = %84
  %92 = load ptr, ptr %6, align 8, !tbaa !12
  %93 = getelementptr inbounds i8, ptr %92, i64 64
  store ptr %93, ptr %6, align 8, !tbaa !12
  %94 = load i64, ptr %7, align 8, !tbaa !22
  %95 = sub i64 %94, 64
  store i64 %95, ptr %7, align 8, !tbaa !22
  br label %81, !llvm.loop !24

96:                                               ; preds = %81
  %97 = load i64, ptr %7, align 8, !tbaa !22
  %98 = icmp ugt i64 %97, 0
  br i1 %98, label %99, label %108

99:                                               ; preds = %96
  %100 = load ptr, ptr %5, align 8, !tbaa !3
  %101 = getelementptr inbounds nuw %struct.mbedtls_sha1_context, ptr %100, i32 0, i32 2
  %102 = getelementptr inbounds [64 x i8], ptr %101, i64 0, i64 0
  %103 = load i32, ptr %10, align 4, !tbaa !10
  %104 = zext i32 %103 to i64
  %105 = getelementptr inbounds nuw i8, ptr %102, i64 %104
  %106 = load ptr, ptr %6, align 8, !tbaa !12
  %107 = load i64, ptr %7, align 8, !tbaa !22
  call void @llvm.memcpy.p0.p0.i64(ptr align 1 %105, ptr align 1 %106, i64 %107, i1 false)
  br label %108

108:                                              ; preds = %99, %96
  store i32 0, ptr %4, align 4
  store i32 1, ptr %11, align 4
  br label %109

109:                                              ; preds = %108, %89, %71, %14
  call void @llvm.lifetime.end.p0(i64 4, ptr %10) #8
  call void @llvm.lifetime.end.p0(i64 8, ptr %9) #8
  call void @llvm.lifetime.end.p0(i64 4, ptr %8) #8
  %110 = load i32, ptr %4, align 4
  ret i32 %110
}