; Function Attrs: nounwind uwtable
define hidden noundef i32 @mbedtls_sha1_update(ptr noundef captures(none) %0, ptr noundef readonly captures(none) %1, i64 noundef %2) local_unnamed_addr #2 {
  %4 = icmp eq i64 %2, 0
  br i1 %4, label %35, label %5

5:                                                ; preds = %3
  %6 = load i32, ptr %0, align 4, !tbaa !7
  %7 = and i32 %6, 63
  %8 = sub nuw nsw i32 64, %7
  %9 = zext nneg i32 %8 to i64
  %10 = trunc i64 %2 to i32
  %11 = add i32 %6, %10
  store i32 %11, ptr %0, align 4, !tbaa !7
  %12 = icmp ult i32 %11, %10
  br i1 %12, label %13, label %17

13:                                               ; preds = %5
  %14 = getelementptr inbounds nuw i8, ptr %0, i64 4
  %15 = load i32, ptr %14, align 4, !tbaa !7
  %16 = add i32 %15, 1
  store i32 %16, ptr %14, align 4, !tbaa !7
  br label %17

17:                                               ; preds = %13, %5
  %.not = icmp eq i32 %7, 0
  br i1 %.not, label %26, label %18

18:                                               ; preds = %17
  %.not44 = icmp ult i64 %2, %9
  br i1 %.not44, label %._crit_edge.thread, label %19

19:                                               ; preds = %18
  %20 = getelementptr inbounds nuw i8, ptr %0, i64 28
  %21 = zext nneg i32 %7 to i64
  %22 = getelementptr inbounds nuw i8, ptr %20, i64 %21
  tail call void @llvm.memcpy.p0.p0.i64(ptr noundef nonnull align 1 dereferenceable(1) %22, ptr noundef nonnull align 1 dereferenceable(1) %1, i64 %9, i1 false)
  %23 = tail call i32 @mbedtls_internal_sha1_process(ptr noundef nonnull %0, ptr noundef nonnull %20)
  %24 = getelementptr inbounds nuw i8, ptr %1, i64 %9
  %25 = sub nuw i64 %2, %9
  br label %26

26:                                               ; preds = %19, %17
  %.036 = phi ptr [ %24, %19 ], [ %1, %17 ]
  %.035 = phi i64 [ %25, %19 ], [ %2, %17 ]
  %27 = icmp ugt i64 %.035, 63
  br i1 %27, label %.lr.ph, label %._crit_edge

.lr.ph:                                           ; preds = %26, %.lr.ph
  %.147 = phi i64 [ %30, %.lr.ph ], [ %.035, %26 ]
  %.13746 = phi ptr [ %29, %.lr.ph ], [ %.036, %26 ]
  %28 = tail call i32 @mbedtls_internal_sha1_process(ptr noundef nonnull %0, ptr noundef %.13746)
  %29 = getelementptr inbounds nuw i8, ptr %.13746, i64 64
  %30 = add i64 %.147, -64
  %31 = icmp ugt i64 %30, 63
  br i1 %31, label %.lr.ph, label %._crit_edge, !llvm.loop !16

._crit_edge:                                      ; preds = %.lr.ph, %26
  %.137.lcssa = phi ptr [ %.036, %26 ], [ %29, %.lr.ph ]
  %.1.lcssa = phi i64 [ %.035, %26 ], [ %30, %.lr.ph ]
  %.not45 = icmp eq i64 %.1.lcssa, 0
  br i1 %.not45, label %35, label %._crit_edge.thread

._crit_edge.thread:                               ; preds = %18, %._crit_edge
  %.1.lcssa60 = phi i64 [ %.1.lcssa, %._crit_edge ], [ %2, %18 ]
  %.137.lcssa59 = phi ptr [ %.137.lcssa, %._crit_edge ], [ %1, %18 ]
  %.05358 = phi i32 [ 0, %._crit_edge ], [ %7, %18 ]
  %32 = getelementptr inbounds nuw i8, ptr %0, i64 28
  %33 = zext nneg i32 %.05358 to i64
  %34 = getelementptr inbounds nuw i8, ptr %32, i64 %33
  tail call void @llvm.memcpy.p0.p0.i64(ptr nonnull align 1 %34, ptr align 1 %.137.lcssa59, i64 %.1.lcssa60, i1 false)
  br label %35

35:                                               ; preds = %._crit_edge, %._crit_edge.thread, %3
  ret i32 0
}